; Function Attrs: nounwind uwtable
define hidden void @je_arena_prefork8(ptr noundef %0, ptr noundef %1) local_unnamed_addr #0 {
  %3 = load i32, ptr @nbins_total, align 4, !tbaa !4
  %.not = icmp eq i32 %3, 0
  br i1 %.not, label %._crit_edge, label %.lr.ph

.lr.ph:                                           ; preds = %2
  %4 = getelementptr inbounds nuw i8, ptr %1, i64 78952
  br label %5

._crit_edge:                                      ; preds = %5, %2
  ret void

5:                                                ; preds = %.lr.ph, %5
  %indvars.iv = phi i64 [ 0, %.lr.ph ], [ %indvars.iv.next, %5 ]
  %6 = getelementptr inbounds nuw [0 x %struct.bin_s], ptr %4, i64 0, i64 %indvars.iv
  tail call void @je_bin_prefork(ptr noundef %0, ptr noundef nonnull %6) #16
  %indvars.iv.next = add nuw nsw i64 %indvars.iv, 1
  %7 = load i32, ptr @nbins_total, align 4, !tbaa !4
  %8 = zext i32 %7 to i64
  %9 = icmp samesign ult i64 %indvars.iv.next, %8
  br i1 %9, label %5, label %._crit_edge, !llvm.loop !225
}